target datalayout = "e-m:e-p270:32:32-p271:32:32-p272:64:64-i64:64-i128:128-f80:128-n8:16:32:64-S128"
target triple = "x86_64-unknown-linux-gnu"

@_ZN22grpc_local_credentialsC1E23grpc_local_connect_type = unnamed_addr alias void (ptr, i32), ptr @_ZN22grpc_local_credentialsC2E23grpc_local_connect_type

; Function Attrs: mustprogress uwtable
define ptr @grpc_local_credentials_create(i32 noundef %connect_type) #4 personality ptr @__gxx_personality_v0 {
entry:
  %connect_type.addr = alloca i32, align 4
  %exn.slot = alloca ptr, align 8
  %ehselector.slot = alloca i32, align 4
  store i32 %connect_type, ptr %connect_type.addr, align 4
  %call = call noalias noundef nonnull ptr @_Znwm(i64 noundef 24) #13
  %0 = load i32, ptr %connect_type.addr, align 4
  invoke void @_ZN22grpc_local_credentialsC1E23grpc_local_connect_type(ptr noundef nonnull align 8 dereferenceable(24) %call, i32 noundef %0)
          to label %invoke.cont unwind label %lpad

invoke.cont:                                      ; preds = %entry
  ret ptr %call

lpad:                                             ; preds = %entry
  %1 = landingpad { ptr, i32 }
          cleanup
  %2 = extractvalue { ptr, i32 } %1, 0
  store ptr %2, ptr %exn.slot, align 8
  %3 = extractvalue { ptr, i32 } %1, 1
  store i32 %3, ptr %ehselector.slot, align 4
  call void @_ZdlPv(ptr noundef %call) #14
  br label %eh.resume

eh.resume:                                        ; preds = %lpad
  %exn = load ptr, ptr %exn.slot, align 8
  %sel = load i32, ptr %ehselector.slot, align 4
  %lpad.val = insertvalue { ptr, i32 } poison, ptr %exn, 0
  %lpad.val1 = insertvalue { ptr, i32 } %lpad.val, i32 %sel, 1
  resume { ptr, i32 } %lpad.val1
}